target datalayout = "e-m:e-p270:32:32-p271:32:32-p272:64:64-i64:64-i128:128-f80:128-n8:16:32:64-S128"
target triple = "x86_64-pc-linux-gnu"

%struct.ImGui_ImplGlfw_Data = type { ptr, i32, double, ptr, [9 x ptr], %struct.ImVec2, i8, i8, ptr, ptr, ptr, ptr, ptr, ptr, ptr, ptr }
%struct.ImVec2 = type { float, float }
%struct.ImGuiIO = type { i32, i32, %struct.ImVec2, float, float, ptr, ptr, ptr, ptr, float, i8, ptr, %struct.ImVec2, i8, i8, i8, i8, i8, i8, i8, i8, i8, i8, float, float, float, float, float, float, i8, i8, i8, i8, i8, i8, i8, i8, i8, i8, ptr, ptr, ptr, ptr, ptr, i8, i8, i8, i8, i8, i8, i8, float, i32, i32, i32, i32, %struct.ImVec2, ptr, %struct.ImVec2, [5 x i8], float, float, i32, i8, i8, i8, i8, i32, [154 x %struct.ImGuiKeyData], i8, %struct.ImVec2, [5 x %struct.ImVec2], [5 x double], [5 x i8], [5 x i8], [5 x i16], [5 x i16], [5 x i8], [5 x i8], [5 x i8], i8, i8, [5 x float], [5 x float], [5 x float], float, i8, i8, i8, i8, i16, %struct.ImVector }
%struct.ImGuiKeyData = type { i8, float, float, float }
%struct.ImVector = type { i32, i32, ptr }

@__const._ZL39ImGui_ImplGlfw_TranslateUntranslatedKeyii.char_names = private unnamed_addr constant [12 x i8] c"`-=[]\\,;'./\00", align 1
@__const._ZL39ImGui_ImplGlfw_TranslateUntranslatedKeyii.char_keys = private unnamed_addr constant [12 x i32] [i32 96, i32 45, i32 61, i32 91, i32 93, i32 92, i32 44, i32 59, i32 39, i32 46, i32 47, i32 0], align 16

; Function Attrs: mustprogress uwtable
define internal noundef i32 @_ZL39ImGui_ImplGlfw_TranslateUntranslatedKeyii(i32 noundef %0, i32 noundef %1) #1 {
  %3 = alloca i32, align 4
  %4 = alloca i32, align 4
  %5 = alloca i32, align 4
  %6 = alloca ptr, align 8
  %7 = alloca ptr, align 8
  %8 = alloca [12 x i8], align 1
  %9 = alloca [12 x i32], align 16
  %10 = alloca ptr, align 8
  store i32 %0, ptr %4, align 4, !tbaa !4
  store i32 %1, ptr %5, align 4, !tbaa !4
  %11 = load i32, ptr %4, align 4, !tbaa !4
  %12 = icmp sge i32 %11, 320
  br i1 %12, label %13, label %18

13:                                               ; preds = %2
  %14 = load i32, ptr %4, align 4, !tbaa !4
  %15 = icmp sle i32 %14, 336
  br i1 %15, label %16, label %18

16:                                               ; preds = %13
  %17 = load i32, ptr %4, align 4, !tbaa !4
  store i32 %17, ptr %3, align 4
  br label %120

18:                                               ; preds = %13, %2
  call void @llvm.lifetime.start.p0(i64 8, ptr %6) #9
  %19 = call ptr @glfwSetErrorCallback(ptr noundef null)
  store ptr %19, ptr %6, align 8, !tbaa !41
  call void @llvm.lifetime.start.p0(i64 8, ptr %7) #9
  %20 = load i32, ptr %4, align 4, !tbaa !4
  %21 = load i32, ptr %5, align 4, !tbaa !4
  %22 = call ptr @glfwGetKeyName(i32 noundef %20, i32 noundef %21)
  store ptr %22, ptr %7, align 8, !tbaa !42
  %23 = load ptr, ptr %6, align 8, !tbaa !41
  %24 = call ptr @glfwSetErrorCallback(ptr noundef %23)
  %25 = call i32 @glfwGetError(ptr noundef null)
  %26 = load ptr, ptr %7, align 8, !tbaa !42
  %27 = icmp ne ptr %26, null
  br i1 %27, label %28, label %118

28:                                               ; preds = %18
  %29 = load ptr, ptr %7, align 8, !tbaa !42
  %30 = getelementptr inbounds i8, ptr %29, i64 0
  %31 = load i8, ptr %30, align 1, !tbaa !43
  %32 = sext i8 %31 to i32
  %33 = icmp ne i32 %32, 0
  br i1 %33, label %34, label %118

34:                                               ; preds = %28
  %35 = load ptr, ptr %7, align 8, !tbaa !42
  %36 = getelementptr inbounds i8, ptr %35, i64 1
  %37 = load i8, ptr %36, align 1, !tbaa !43
  %38 = sext i8 %37 to i32
  %39 = icmp eq i32 %38, 0
  br i1 %39, label %40, label %118

40:                                               ; preds = %34
  call void @llvm.lifetime.start.p0(i64 12, ptr %8) #9
  call void @llvm.memcpy.p0.p0.i64(ptr align 1 %8, ptr align 1 @__const._ZL39ImGui_ImplGlfw_TranslateUntranslatedKeyii.char_names, i64 12, i1 false)
  call void @llvm.lifetime.start.p0(i64 48, ptr %9) #9
  call void @llvm.memcpy.p0.p0.i64(ptr align 16 %9, ptr align 16 @__const._ZL39ImGui_ImplGlfw_TranslateUntranslatedKeyii.char_keys, i64 48, i1 false)
  %41 = load ptr, ptr %7, align 8, !tbaa !42
  %42 = getelementptr inbounds i8, ptr %41, i64 0
  %43 = load i8, ptr %42, align 1, !tbaa !43
  %44 = sext i8 %43 to i32
  %45 = icmp sge i32 %44, 48
  br i1 %45, label %46, label %59

46:                                               ; preds = %40
  %47 = load ptr, ptr %7, align 8, !tbaa !42
  %48 = getelementptr inbounds i8, ptr %47, i64 0
  %49 = load i8, ptr %48, align 1, !tbaa !43
  %50 = sext i8 %49 to i32
  %51 = icmp sle i32 %50, 57
  br i1 %51, label %52, label %59

52:                                               ; preds = %46
  %53 = load ptr, ptr %7, align 8, !tbaa !42
  %54 = getelementptr inbounds i8, ptr %53, i64 0
  %55 = load i8, ptr %54, align 1, !tbaa !43
  %56 = sext i8 %55 to i32
  %57 = sub nsw i32 %56, 48
  %58 = add nsw i32 48, %57
  store i32 %58, ptr %4, align 4, !tbaa !4
  br label %117

59:                                               ; preds = %46, %40
  %60 = load ptr, ptr %7, align 8, !tbaa !42
  %61 = getelementptr inbounds i8, ptr %60, i64 0
  %62 = load i8, ptr %61, align 1, !tbaa !43
  %63 = sext i8 %62 to i32
  %64 = icmp sge i32 %63, 65
  br i1 %64, label %65, label %78

65:                                               ; preds = %59
  %66 = load ptr, ptr %7, align 8, !tbaa !42
  %67 = getelementptr inbounds i8, ptr %66, i64 0
  %68 = load i8, ptr %67, align 1, !tbaa !43
  %69 = sext i8 %68 to i32
  %70 = icmp sle i32 %69, 90
  br i1 %70, label %71, label %78

71:                                               ; preds = %65
  %72 = load ptr, ptr %7, align 8, !tbaa !42
  %73 = getelementptr inbounds i8, ptr %72, i64 0
  %74 = load i8, ptr %73, align 1, !tbaa !43
  %75 = sext i8 %74 to i32
  %76 = sub nsw i32 %75, 65
  %77 = add nsw i32 65, %76
  store i32 %77, ptr %4, align 4, !tbaa !4
  br label %116

78:                                               ; preds = %65, %59
  %79 = load ptr, ptr %7, align 8, !tbaa !42
  %80 = getelementptr inbounds i8, ptr %79, i64 0
  %81 = load i8, ptr %80, align 1, !tbaa !43
  %82 = sext i8 %81 to i32
  %83 = icmp sge i32 %82, 97
  br i1 %83, label %84, label %97

84:                                               ; preds = %78
  %85 = load ptr, ptr %7, align 8, !tbaa !42
  %86 = getelementptr inbounds i8, ptr %85, i64 0
  %87 = load i8, ptr %86, align 1, !tbaa !43
  %88 = sext i8 %87 to i32
  %89 = icmp sle i32 %88, 122
  br i1 %89, label %90, label %97

90:                                               ; preds = %84
  %91 = load ptr, ptr %7, align 8, !tbaa !42
  %92 = getelementptr inbounds i8, ptr %91, i64 0
  %93 = load i8, ptr %92, align 1, !tbaa !43
  %94 = sext i8 %93 to i32
  %95 = sub nsw i32 %94, 97
  %96 = add nsw i32 65, %95
  store i32 %96, ptr %4, align 4, !tbaa !4
  br label %115

97:                                               ; preds = %84, %78
  call void @llvm.lifetime.start.p0(i64 8, ptr %10) #9
  %98 = getelementptr inbounds [12 x i8], ptr %8, i64 0, i64 0
  %99 = load ptr, ptr %7, align 8, !tbaa !42
  %100 = getelementptr inbounds i8, ptr %99, i64 0
  %101 = load i8, ptr %100, align 1, !tbaa !43
  %102 = sext i8 %101 to i32
  %103 = call noundef ptr @strchr(ptr noundef %98, i32 noundef %102) #10
  store ptr %103, ptr %10, align 8, !tbaa !42
  %104 = load ptr, ptr %10, align 8, !tbaa !42
  %105 = icmp ne ptr %104, null
  br i1 %105, label %106, label %114

106:                                              ; preds = %97
  %107 = load ptr, ptr %10, align 8, !tbaa !42
  %108 = getelementptr inbounds [12 x i8], ptr %8, i64 0, i64 0
  %109 = ptrtoint ptr %107 to i64
  %110 = ptrtoint ptr %108 to i64
  %111 = sub i64 %109, %110
  %112 = getelementptr inbounds [12 x i32], ptr %9, i64 0, i64 %111
  %113 = load i32, ptr %112, align 4, !tbaa !4
  store i32 %113, ptr %4, align 4, !tbaa !4
  br label %114

114:                                              ; preds = %106, %97
  call void @llvm.lifetime.end.p0(i64 8, ptr %10) #9
  br label %115

115:                                              ; preds = %114, %90
  br label %116

116:                                              ; preds = %115, %71
  br label %117

117:                                              ; preds = %116, %52
  call void @llvm.lifetime.end.p0(i64 48, ptr %9) #9
  call void @llvm.lifetime.end.p0(i64 12, ptr %8) #9
  br label %118

118:                                              ; preds = %117, %34, %28, %18
  %119 = load i32, ptr %4, align 4, !tbaa !4
  store i32 %119, ptr %3, align 4
  call void @llvm.lifetime.end.p0(i64 8, ptr %7) #9
  call void @llvm.lifetime.end.p0(i64 8, ptr %6) #9
  br label %120

120:                                              ; preds = %118, %16
  %121 = load i32, ptr %3, align 4
  ret i32 %121
}

; Function Attrs: mustprogress uwtable
define internal noundef zeroext i1 @_ZL34ImGui_ImplGlfw_ShouldChainCallbackP10GLFWwindow(ptr noundef %0) #1 {
  %2 = alloca ptr, align 8
  %3 = alloca ptr, align 8
  store ptr %0, ptr %2, align 8, !tbaa !8
  call void @llvm.lifetime.start.p0(i64 8, ptr %3) #9
  %4 = call noundef ptr @_ZL29ImGui_ImplGlfw_GetBackendDatav()
  store ptr %4, ptr %3, align 8, !tbaa !11
  %5 = load ptr, ptr %3, align 8, !tbaa !11
  %6 = getelementptr inbounds nuw %struct.ImGui_ImplGlfw_Data, ptr %5, i32 0, i32 7
  %7 = load i8, ptr %6, align 1, !tbaa !32, !range !33, !noundef !34
  %8 = trunc i8 %7 to i1
  br i1 %8, label %9, label %10

9:                                                ; preds = %1
  br label %16

10:                                               ; preds = %1
  %11 = load ptr, ptr %2, align 8, !tbaa !8
  %12 = load ptr, ptr %3, align 8, !tbaa !11
  %13 = getelementptr inbounds nuw %struct.ImGui_ImplGlfw_Data, ptr %12, i32 0, i32 0
  %14 = load ptr, ptr %13, align 8, !tbaa !35
  %15 = icmp eq ptr %11, %14
  br label %16

16:                                               ; preds = %10, %9
  %17 = phi i1 [ true, %9 ], [ %15, %10 ]
  call void @llvm.lifetime.end.p0(i64 8, ptr %3) #9
  ret i1 %17
}

; Function Attrs: mustprogress uwtable
define internal noundef ptr @_ZL29ImGui_ImplGlfw_GetBackendDatav() #1 {
  %1 = call noundef ptr @_ZN5ImGui17GetCurrentContextEv()
  %2 = icmp ne ptr %1, null
  br i1 %2, label %3, label %7

3:                                                ; preds = %0
  %4 = call noundef nonnull align 8 dereferenceable(2944) ptr @_ZN5ImGui5GetIOEv()
  %5 = getelementptr inbounds nuw %struct.ImGuiIO, ptr %4, i32 0, i32 41
  %6 = load ptr, ptr %5, align 8, !tbaa !22
  br label %8

7:                                                ; preds = %0
  br label %8

8:                                                ; preds = %7, %3
  %9 = phi ptr [ %6, %3 ], [ null, %7 ]
  ret ptr %9
}

; Function Attrs: mustprogress uwtable
define dso_local void @_Z26ImGui_ImplGlfw_KeyCallbackP10GLFWwindowiiii(ptr noundef %0, i32 noundef %1, i32 noundef %2, i32 noundef %3, i32 noundef %4) #1 {
  %6 = alloca ptr, align 8
  %7 = alloca i32, align 4
  %8 = alloca i32, align 4
  %9 = alloca i32, align 4
  %10 = alloca i32, align 4
  %11 = alloca ptr, align 8
  %12 = alloca i32, align 4
  %13 = alloca ptr, align 8
  %14 = alloca i32, align 4
  store ptr %0, ptr %6, align 8, !tbaa !8
  store i32 %1, ptr %7, align 4, !tbaa !4
  store i32 %2, ptr %8, align 4, !tbaa !4
  store i32 %3, ptr %9, align 4, !tbaa !4
  store i32 %4, ptr %10, align 4, !tbaa !4
  call void @llvm.lifetime.start.p0(i64 8, ptr %11) #9
  %15 = call noundef ptr @_ZL29ImGui_ImplGlfw_GetBackendDatav()
  store ptr %15, ptr %11, align 8, !tbaa !11
  %16 = load ptr, ptr %11, align 8, !tbaa !11
  %17 = getelementptr inbounds nuw %struct.ImGui_ImplGlfw_Data, ptr %16, i32 0, i32 13
  %18 = load ptr, ptr %17, align 8, !tbaa !38
  %19 = icmp ne ptr %18, null
  br i1 %19, label %20, label %32

20:                                               ; preds = %5
  %21 = load ptr, ptr %6, align 8, !tbaa !8
  %22 = call noundef zeroext i1 @_ZL34ImGui_ImplGlfw_ShouldChainCallbackP10GLFWwindow(ptr noundef %21)
  br i1 %22, label %23, label %32

23:                                               ; preds = %20
  %24 = load ptr, ptr %11, align 8, !tbaa !11
  %25 = getelementptr inbounds nuw %struct.ImGui_ImplGlfw_Data, ptr %24, i32 0, i32 13
  %26 = load ptr, ptr %25, align 8, !tbaa !38
  %27 = load ptr, ptr %6, align 8, !tbaa !8
  %28 = load i32, ptr %7, align 4, !tbaa !4
  %29 = load i32, ptr %8, align 4, !tbaa !4
  %30 = load i32, ptr %9, align 4, !tbaa !4
  %31 = load i32, ptr %10, align 4, !tbaa !4
  call void %26(ptr noundef %27, i32 noundef %28, i32 noundef %29, i32 noundef %30, i32 noundef %31)
  br label %32

32:                                               ; preds = %23, %20, %5
  %33 = load i32, ptr %9, align 4, !tbaa !4
  %34 = icmp ne i32 %33, 1
  br i1 %34, label %35, label %39

35:                                               ; preds = %32
  %36 = load i32, ptr %9, align 4, !tbaa !4
  %37 = icmp ne i32 %36, 0
  br i1 %37, label %38, label %39

38:                                               ; preds = %35
  store i32 1, ptr %12, align 4
  br label %56

39:                                               ; preds = %35, %32
  %40 = load ptr, ptr %6, align 8, !tbaa !8
  call void @_ZL33ImGui_ImplGlfw_UpdateKeyModifiersP10GLFWwindow(ptr noundef %40)
  %41 = load i32, ptr %7, align 4, !tbaa !4
  %42 = load i32, ptr %8, align 4, !tbaa !4
  %43 = call noundef i32 @_ZL39ImGui_ImplGlfw_TranslateUntranslatedKeyii(i32 noundef %41, i32 noundef %42)
  store i32 %43, ptr %7, align 4, !tbaa !4
  call void @llvm.lifetime.start.p0(i64 8, ptr %13) #9
  %44 = call noundef nonnull align 8 dereferenceable(2944) ptr @_ZN5ImGui5GetIOEv()
  store ptr %44, ptr %13, align 8, !tbaa !20
  call void @llvm.lifetime.start.p0(i64 4, ptr %14) #9
  %45 = load i32, ptr %7, align 4, !tbaa !4
  %46 = load i32, ptr %8, align 4, !tbaa !4
  %47 = call noundef i32 @_Z28ImGui_ImplGlfw_KeyToImGuiKeyii(i32 noundef %45, i32 noundef %46)
  store i32 %47, ptr %14, align 4, !tbaa !39
  %48 = load ptr, ptr %13, align 8, !tbaa !20
  %49 = load i32, ptr %14, align 4, !tbaa !39
  %50 = load i32, ptr %9, align 4, !tbaa !4
  %51 = icmp eq i32 %50, 1
  call void @_ZN7ImGuiIO11AddKeyEventE8ImGuiKeyb(ptr noundef nonnull align 8 dereferenceable(2944) %48, i32 noundef %49, i1 noundef zeroext %51)
  %52 = load ptr, ptr %13, align 8, !tbaa !20
  %53 = load i32, ptr %14, align 4, !tbaa !39
  %54 = load i32, ptr %7, align 4, !tbaa !4
  %55 = load i32, ptr %8, align 4, !tbaa !4
  call void @_ZN7ImGuiIO21SetKeyEventNativeDataE8ImGuiKeyiii(ptr noundef nonnull align 8 dereferenceable(2944) %52, i32 noundef %53, i32 noundef %54, i32 noundef %55, i32 noundef -1)
  call void @llvm.lifetime.end.p0(i64 4, ptr %14) #9
  call void @llvm.lifetime.end.p0(i64 8, ptr %13) #9
  store i32 0, ptr %12, align 4
  br label %56

56:                                               ; preds = %39, %38
  call void @llvm.lifetime.end.p0(i64 8, ptr %11) #9
  %57 = load i32, ptr %12, align 4
  switch i32 %57, label %59 [
    i32 0, label %58
    i32 1, label %58
  ]

58:                                               ; preds = %56, %56
  ret void

59:                                               ; preds = %56
  unreachable
}