; Function Attrs: mustprogress uwtable
define dso_local void @_Z26ImGui_ImplGlfw_KeyCallbackP10GLFWwindowiiii(ptr noundef %0, i32 noundef %1, i32 noundef %2, i32 noundef %3, i32 noundef %4) #1 {
_ZL29ImGui_ImplGlfw_GetBackendDatav.exit:
  %5 = alloca [12 x i8], align 1
  %6 = tail call noundef ptr @_ZN5ImGui17GetCurrentContextEv()
  %.not.i = icmp ne ptr %6, null
  tail call void @llvm.assume(i1 %.not.i)
  %7 = tail call noundef nonnull align 8 dereferenceable(2944) ptr @_ZN5ImGui5GetIOEv()
  %8 = getelementptr inbounds nuw i8, ptr %7, i64 144
  %9 = load ptr, ptr %8, align 8, !tbaa !4
  %10 = getelementptr inbounds nuw i8, ptr %9, i64 160
  %11 = load ptr, ptr %10, align 8, !tbaa !31
  %.not = icmp eq ptr %11, null
  br i1 %.not, label %25, label %12

12:                                               ; preds = %_ZL29ImGui_ImplGlfw_GetBackendDatav.exit
  %13 = tail call noundef ptr @_ZN5ImGui17GetCurrentContextEv()
  %.not.i.i = icmp eq ptr %13, null
  br i1 %.not.i.i, label %_ZL29ImGui_ImplGlfw_GetBackendDatav.exit.i, label %14

14:                                               ; preds = %12
  %15 = tail call noundef nonnull align 8 dereferenceable(2944) ptr @_ZN5ImGui5GetIOEv()
  %16 = getelementptr inbounds nuw i8, ptr %15, i64 144
  %17 = load ptr, ptr %16, align 8, !tbaa !4
  br label %_ZL29ImGui_ImplGlfw_GetBackendDatav.exit.i

_ZL29ImGui_ImplGlfw_GetBackendDatav.exit.i:       ; preds = %14, %12
  %18 = phi ptr [ %17, %14 ], [ null, %12 ]
  %19 = getelementptr inbounds nuw i8, ptr %18, i64 113
  %20 = load i8, ptr %19, align 1, !tbaa !26, !range !27, !noundef !28
  %21 = trunc nuw i8 %20 to i1
  br i1 %21, label %_ZL34ImGui_ImplGlfw_ShouldChainCallbackP10GLFWwindow.exit.thread, label %_ZL34ImGui_ImplGlfw_ShouldChainCallbackP10GLFWwindow.exit

_ZL34ImGui_ImplGlfw_ShouldChainCallbackP10GLFWwindow.exit: ; preds = %_ZL29ImGui_ImplGlfw_GetBackendDatav.exit.i
  %22 = load ptr, ptr %18, align 8, !tbaa !29
  %23 = icmp eq ptr %0, %22
  br i1 %23, label %_ZL34ImGui_ImplGlfw_ShouldChainCallbackP10GLFWwindow.exit.thread, label %25

_ZL34ImGui_ImplGlfw_ShouldChainCallbackP10GLFWwindow.exit.thread: ; preds = %_ZL29ImGui_ImplGlfw_GetBackendDatav.exit.i, %_ZL34ImGui_ImplGlfw_ShouldChainCallbackP10GLFWwindow.exit
  %24 = load ptr, ptr %10, align 8, !tbaa !31
  tail call void %24(ptr noundef %0, i32 noundef %1, i32 noundef %2, i32 noundef %3, i32 noundef %4)
  br label %25

25:                                               ; preds = %_ZL34ImGui_ImplGlfw_ShouldChainCallbackP10GLFWwindow.exit.thread, %_ZL34ImGui_ImplGlfw_ShouldChainCallbackP10GLFWwindow.exit, %_ZL29ImGui_ImplGlfw_GetBackendDatav.exit
  %or.cond = icmp ugt i32 %3, 1
  br i1 %or.cond, label %60, label %26

26:                                               ; preds = %25
  tail call fastcc void @_ZL33ImGui_ImplGlfw_UpdateKeyModifiersP10GLFWwindow(ptr noundef %0)
  %27 = add i32 %1, -320
  %or.cond.i = icmp ult i32 %27, 17
  br i1 %or.cond.i, label %_ZL39ImGui_ImplGlfw_TranslateUntranslatedKeyii.exit, label %28

28:                                               ; preds = %26
  %29 = tail call ptr @glfwSetErrorCallback(ptr noundef null)
  %30 = tail call ptr @glfwGetKeyName(i32 noundef %1, i32 noundef %2)
  %31 = tail call ptr @glfwSetErrorCallback(ptr noundef %29)
  %32 = tail call i32 @glfwGetError(ptr noundef null)
  %.not.i22 = icmp eq ptr %30, null
  br i1 %.not.i22, label %_ZL39ImGui_ImplGlfw_TranslateUntranslatedKeyii.exit, label %33

33:                                               ; preds = %28
  %34 = load i8, ptr %30, align 1, !tbaa !32
  %.not30.i = icmp eq i8 %34, 0
  br i1 %.not30.i, label %_ZL39ImGui_ImplGlfw_TranslateUntranslatedKeyii.exit, label %35

35:                                               ; preds = %33
  %36 = getelementptr inbounds nuw i8, ptr %30, i64 1
  %37 = load i8, ptr %36, align 1, !tbaa !32
  %38 = icmp eq i8 %37, 0
  br i1 %38, label %39, label %_ZL39ImGui_ImplGlfw_TranslateUntranslatedKeyii.exit

39:                                               ; preds = %35
  call void @llvm.lifetime.start.p0(i64 12, ptr nonnull %5) #9
  call void @llvm.memcpy.p0.p0.i64(ptr noundef nonnull align 1 dereferenceable(12) %5, ptr noundef nonnull align 1 dereferenceable(12) @__const._ZL39ImGui_ImplGlfw_TranslateUntranslatedKeyii.char_names, i64 12, i1 false)
  %40 = sext i8 %34 to i32
  %41 = add i8 %34, -48
  %or.cond32.i = icmp ult i8 %41, 10
  %42 = add i8 %34, -65
  %or.cond33.i = icmp ult i8 %42, 26
  %or.cond35.i = or i1 %or.cond32.i, %or.cond33.i
  br i1 %or.cond35.i, label %56, label %43

43:                                               ; preds = %39
  %44 = add i8 %34, -97
  %or.cond34.i = icmp ult i8 %44, 26
  br i1 %or.cond34.i, label %45, label %48

45:                                               ; preds = %43
  %46 = zext nneg i8 %34 to i32
  %47 = add nsw i32 %46, -32
  br label %56

48:                                               ; preds = %43
  %49 = call noundef ptr @strchr(ptr noundef nonnull dereferenceable(1) %5, i32 noundef %40) #10
  %.not31.i = icmp eq ptr %49, null
  br i1 %.not31.i, label %56, label %50

50:                                               ; preds = %48
  %51 = ptrtoint ptr %49 to i64
  %52 = ptrtoint ptr %5 to i64
  %53 = sub i64 %51, %52
  %54 = getelementptr inbounds [12 x i32], ptr @__const._ZL39ImGui_ImplGlfw_TranslateUntranslatedKeyii.char_keys, i64 0, i64 %53
  %55 = load i32, ptr %54, align 4, !tbaa !33
  br label %56

56:                                               ; preds = %50, %48, %45, %39
  %.1.i = phi i32 [ %47, %45 ], [ %40, %39 ], [ %55, %50 ], [ %1, %48 ]
  call void @llvm.lifetime.end.p0(i64 12, ptr nonnull %5) #9
  br label %_ZL39ImGui_ImplGlfw_TranslateUntranslatedKeyii.exit

_ZL39ImGui_ImplGlfw_TranslateUntranslatedKeyii.exit: ; preds = %26, %28, %33, %35, %56
  %.0.i = phi i32 [ %1, %26 ], [ %.1.i, %56 ], [ %1, %35 ], [ %1, %33 ], [ %1, %28 ]
  %57 = call noundef nonnull align 8 dereferenceable(2944) ptr @_ZN5ImGui5GetIOEv()
  %58 = call noundef i32 @_Z28ImGui_ImplGlfw_KeyToImGuiKeyii(i32 noundef %.0.i, i32 poison)
  %59 = icmp eq i32 %3, 1
  call void @_ZN7ImGuiIO11AddKeyEventE8ImGuiKeyb(ptr noundef nonnull align 8 dereferenceable(2944) %57, i32 noundef %58, i1 noundef zeroext %59)
  call void @_ZN7ImGuiIO21SetKeyEventNativeDataE8ImGuiKeyiii(ptr noundef nonnull align 8 dereferenceable(2944) %57, i32 noundef %58, i32 noundef %.0.i, i32 noundef %2, i32 noundef -1)
  br label %60

60:                                               ; preds = %25, %_ZL39ImGui_ImplGlfw_TranslateUntranslatedKeyii.exit
  ret void
}